target datalayout = "e-m:e-p270:32:32-p271:32:32-p272:64:64-i64:64-i128:128-f80:128-n8:16:32:64-S128"
target triple = "x86_64-pc-linux-gnu"

%struct.json_dumper = type { ptr, ptr, i32, i32, i32, i32, [1100 x i8] }
%struct._stat_tap_table_ui = type { i32, ptr, ptr, ptr, ptr, ptr, ptr, ptr, ptr, i64, ptr, i64, ptr, ptr, i32 }
%struct._stat_data_t = type { ptr, ptr }
%struct._GArray = type { ptr, i32 }
%struct._stat_tap_table_item = type { i32, i32, ptr, ptr }
%struct._stat_tap_table = type { ptr, ptr, i32, i32, ptr }
%struct._stat_tap_table_item_type = type { i32, %union.anon.8, %union.anon.9 }
%union.anon.8 = type { ptr }
%union.anon.9 = type { ptr }

@dumper = internal global %struct.json_dumper zeroinitializer, align 8
@.str.5 = private unnamed_addr constant [3 x i8] c"%d\00", align 1
@.str.20 = private unnamed_addr constant [4 x i8] c"tap\00", align 1
@.str.123 = private unnamed_addr constant [3 x i8] c"%u\00", align 1
@.str.146 = private unnamed_addr constant [6 x i8] c"nstat\00", align 1
@.str.166 = private unnamed_addr constant [9 x i8] c"nstat:%s\00", align 1
@.str.186 = private unnamed_addr constant [2 x i8] c"t\00", align 1
@.str.195 = private unnamed_addr constant [2 x i8] c"c\00", align 1
@.str.199 = private unnamed_addr constant [2 x i8] c"i\00", align 1
@.str.244 = private unnamed_addr constant [5 x i8] c"type\00", align 1
@.str.250 = private unnamed_addr constant [3 x i8] c"%f\00", align 1
@.str.297 = private unnamed_addr constant [7 x i8] c"fields\00", align 1
@.str.298 = private unnamed_addr constant [7 x i8] c"tables\00", align 1
@.str.299 = private unnamed_addr constant [5 x i8] c"null\00", align 1

; Function Attrs: null_pointer_is_valid sspstrong uwtable
define internal void @sharkd_json_array_close() #0 {
  call void @json_dumper_end_array(ptr noundef @dumper)
  ret void
}

; Function Attrs: null_pointer_is_valid sspstrong uwtable
define internal void @sharkd_json_array_open(ptr noundef %0) #0 {
  %2 = alloca ptr, align 8
  store ptr %0, ptr %2, align 8
  %3 = load ptr, ptr %2, align 8
  %4 = icmp ne ptr %3, null
  br i1 %4, label %5, label %7

5:                                                ; preds = %1
  %6 = load ptr, ptr %2, align 8
  call void @json_dumper_set_member_name(ptr noundef @dumper, ptr noundef %6)
  br label %7

7:                                                ; preds = %5, %1
  call void @json_dumper_begin_array(ptr noundef @dumper)
  ret void
}

; Function Attrs: null_pointer_is_valid sspstrong uwtable
define internal void @sharkd_json_value_string(ptr noundef %0, ptr noundef %1) #0 {
  %3 = alloca ptr, align 8
  %4 = alloca ptr, align 8
  store ptr %0, ptr %3, align 8
  store ptr %1, ptr %4, align 8
  %5 = load ptr, ptr %3, align 8
  %6 = icmp ne ptr %5, null
  br i1 %6, label %7, label %9

7:                                                ; preds = %2
  %8 = load ptr, ptr %3, align 8
  call void @json_dumper_set_member_name(ptr noundef @dumper, ptr noundef %8)
  br label %9

9:                                                ; preds = %7, %2
  %10 = load ptr, ptr %4, align 8
  call void @json_dumper_value_string(ptr noundef @dumper, ptr noundef %10)
  ret void
}

; Function Attrs: null_pointer_is_valid sspstrong uwtable
define internal void @sharkd_session_process_tap_nstat_cb(ptr noundef %0) #0 {
  %2 = alloca ptr, align 8
  %3 = alloca ptr, align 8
  %4 = alloca i32, align 4
  %5 = alloca i32, align 4
  %6 = alloca i32, align 4
  %7 = alloca ptr, align 8
  %8 = alloca ptr, align 8
  %9 = alloca ptr, align 8
  %10 = alloca i32, align 4
  store ptr %0, ptr %2, align 8
  call void @llvm.lifetime.start.p0(i64 8, ptr %3) #21
  %11 = load ptr, ptr %2, align 8
  store ptr %11, ptr %3, align 8
  call void @llvm.lifetime.start.p0(i64 4, ptr %4) #21
  call void @llvm.lifetime.start.p0(i64 4, ptr %5) #21
  call void @llvm.lifetime.start.p0(i64 4, ptr %6) #21
  call void @json_dumper_begin_object(ptr noundef @dumper)
  %12 = load ptr, ptr %3, align 8
  %13 = getelementptr inbounds nuw %struct._stat_data_t, ptr %12, i32 0, i32 0
  %14 = load ptr, ptr %13, align 8
  %15 = getelementptr inbounds nuw %struct._stat_tap_table_ui, ptr %14, i32 0, i32 3
  %16 = load ptr, ptr %15, align 8
  call void (ptr, ptr, ...) @sharkd_json_value_stringf(ptr noundef @.str.20, ptr noundef @.str.166, ptr noundef %16)
  call void @sharkd_json_value_string(ptr noundef @.str.244, ptr noundef @.str.146)
  call void @sharkd_json_array_open(ptr noundef @.str.297)
  store i32 0, ptr %4, align 4
  br label %17

17:                                               ; preds = %38, %1
  %18 = load i32, ptr %4, align 4
  %19 = zext i32 %18 to i64
  %20 = load ptr, ptr %3, align 8
  %21 = getelementptr inbounds nuw %struct._stat_data_t, ptr %20, i32 0, i32 0
  %22 = load ptr, ptr %21, align 8
  %23 = getelementptr inbounds nuw %struct._stat_tap_table_ui, ptr %22, i32 0, i32 9
  %24 = load i64, ptr %23, align 8
  %25 = icmp ult i64 %19, %24
  br i1 %25, label %26, label %41

26:                                               ; preds = %17
  call void @llvm.lifetime.start.p0(i64 8, ptr %7) #21
  %27 = load ptr, ptr %3, align 8
  %28 = getelementptr inbounds nuw %struct._stat_data_t, ptr %27, i32 0, i32 0
  %29 = load ptr, ptr %28, align 8
  %30 = getelementptr inbounds nuw %struct._stat_tap_table_ui, ptr %29, i32 0, i32 10
  %31 = load ptr, ptr %30, align 8
  %32 = load i32, ptr %4, align 4
  %33 = zext i32 %32 to i64
  %34 = getelementptr %struct._stat_tap_table_item, ptr %31, i64 %33
  store ptr %34, ptr %7, align 8
  call void @json_dumper_begin_object(ptr noundef @dumper)
  %35 = load ptr, ptr %7, align 8
  %36 = getelementptr inbounds nuw %struct._stat_tap_table_item, ptr %35, i32 0, i32 2
  %37 = load ptr, ptr %36, align 8
  call void @sharkd_json_value_string(ptr noundef @.str.195, ptr noundef %37)
  call void @json_dumper_end_object(ptr noundef @dumper)
  call void @llvm.lifetime.end.p0(i64 8, ptr %7) #21
  br label %38

38:                                               ; preds = %26
  %39 = load i32, ptr %4, align 4
  %40 = add i32 %39, 1
  store i32 %40, ptr %4, align 4
  br label %17, !llvm.loop !52

41:                                               ; preds = %17
  call void @sharkd_json_array_close()
  call void @sharkd_json_array_open(ptr noundef @.str.298)
  store i32 0, ptr %4, align 4
  br label %42

42:                                               ; preds = %133, %41
  %43 = load i32, ptr %4, align 4
  %44 = load ptr, ptr %3, align 8
  %45 = getelementptr inbounds nuw %struct._stat_data_t, ptr %44, i32 0, i32 0
  %46 = load ptr, ptr %45, align 8
  %47 = getelementptr inbounds nuw %struct._stat_tap_table_ui, ptr %46, i32 0, i32 13
  %48 = load ptr, ptr %47, align 8
  %49 = getelementptr inbounds nuw %struct._GArray, ptr %48, i32 0, i32 1
  %50 = load i32, ptr %49, align 8
  %51 = icmp ult i32 %43, %50
  br i1 %51, label %52, label %136

52:                                               ; preds = %42
  call void @llvm.lifetime.start.p0(i64 8, ptr %8) #21
  %53 = load ptr, ptr %3, align 8
  %54 = getelementptr inbounds nuw %struct._stat_data_t, ptr %53, i32 0, i32 0
  %55 = load ptr, ptr %54, align 8
  %56 = getelementptr inbounds nuw %struct._stat_tap_table_ui, ptr %55, i32 0, i32 13
  %57 = load ptr, ptr %56, align 8
  %58 = getelementptr inbounds nuw %struct._GArray, ptr %57, i32 0, i32 0
  %59 = load ptr, ptr %58, align 8
  %60 = load i32, ptr %4, align 4
  %61 = zext i32 %60 to i64
  %62 = getelementptr ptr, ptr %59, i64 %61
  %63 = load ptr, ptr %62, align 8
  store ptr %63, ptr %8, align 8
  call void @json_dumper_begin_object(ptr noundef @dumper)
  %64 = load ptr, ptr %8, align 8
  %65 = getelementptr inbounds nuw %struct._stat_tap_table, ptr %64, i32 0, i32 0
  %66 = load ptr, ptr %65, align 8
  call void @sharkd_json_value_string(ptr noundef @.str.186, ptr noundef %66)
  call void @sharkd_json_array_open(ptr noundef @.str.199)
  store i32 0, ptr %5, align 4
  br label %67

67:                                               ; preds = %129, %52
  %68 = load i32, ptr %5, align 4
  %69 = load ptr, ptr %8, align 8
  %70 = getelementptr inbounds nuw %struct._stat_tap_table, ptr %69, i32 0, i32 3
  %71 = load i32, ptr %70, align 4
  %72 = icmp ult i32 %68, %71
  br i1 %72, label %73, label %132

73:                                               ; preds = %67
  call void @llvm.lifetime.start.p0(i64 8, ptr %9) #21
  %74 = load ptr, ptr %8, align 8
  %75 = load i32, ptr %5, align 4
  %76 = call ptr @stat_tap_get_field_data(ptr noundef %74, i32 noundef %75, i32 noundef 0)
  store ptr %76, ptr %9, align 8
  %77 = load ptr, ptr %9, align 8
  %78 = icmp eq ptr %77, null
  br i1 %78, label %84, label %79

79:                                               ; preds = %73
  %80 = load ptr, ptr %9, align 8
  %81 = getelementptr inbounds nuw %struct._stat_tap_table_item_type, ptr %80, i32 0, i32 0
  %82 = load i32, ptr %81, align 8
  %83 = icmp eq i32 %82, 0
  br i1 %83, label %84, label %85

84:                                               ; preds = %79, %73
  store i32 10, ptr %10, align 4
  br label %126

85:                                               ; preds = %79
  call void @sharkd_json_array_open(ptr noundef null)
  store i32 0, ptr %6, align 4
  br label %86

86:                                               ; preds = %122, %85
  %87 = load i32, ptr %6, align 4
  %88 = load ptr, ptr %8, align 8
  %89 = getelementptr inbounds nuw %struct._stat_tap_table, ptr %88, i32 0, i32 2
  %90 = load i32, ptr %89, align 8
  %91 = icmp ult i32 %87, %90
  br i1 %91, label %92, label %125

92:                                               ; preds = %86
  %93 = load ptr, ptr %8, align 8
  %94 = load i32, ptr %5, align 4
  %95 = load i32, ptr %6, align 4
  %96 = call ptr @stat_tap_get_field_data(ptr noundef %93, i32 noundef %94, i32 noundef %95)
  store ptr %96, ptr %9, align 8
  %97 = load ptr, ptr %9, align 8
  %98 = getelementptr inbounds nuw %struct._stat_tap_table_item_type, ptr %97, i32 0, i32 0
  %99 = load i32, ptr %98, align 8
  switch i32 %99, label %121 [
    i32 1, label %100
    i32 2, label %104
    i32 3, label %108
    i32 4, label %112
    i32 5, label %116
    i32 0, label %120
  ]

100:                                              ; preds = %92
  %101 = load ptr, ptr %9, align 8
  %102 = getelementptr inbounds nuw %struct._stat_tap_table_item_type, ptr %101, i32 0, i32 1
  %103 = load i32, ptr %102, align 8
  call void (ptr, ptr, ...) @sharkd_json_value_anyf(ptr noundef null, ptr noundef @.str.123, i32 noundef %103)
  br label %121

104:                                              ; preds = %92
  %105 = load ptr, ptr %9, align 8
  %106 = getelementptr inbounds nuw %struct._stat_tap_table_item_type, ptr %105, i32 0, i32 1
  %107 = load i32, ptr %106, align 8
  call void (ptr, ptr, ...) @sharkd_json_value_anyf(ptr noundef null, ptr noundef @.str.5, i32 noundef %107)
  br label %121

108:                                              ; preds = %92
  %109 = load ptr, ptr %9, align 8
  %110 = getelementptr inbounds nuw %struct._stat_tap_table_item_type, ptr %109, i32 0, i32 1
  %111 = load ptr, ptr %110, align 8
  call void @sharkd_json_value_string(ptr noundef null, ptr noundef %111)
  br label %121

112:                                              ; preds = %92
  %113 = load ptr, ptr %9, align 8
  %114 = getelementptr inbounds nuw %struct._stat_tap_table_item_type, ptr %113, i32 0, i32 1
  %115 = load double, ptr %114, align 8
  call void (ptr, ptr, ...) @sharkd_json_value_anyf(ptr noundef null, ptr noundef @.str.250, double noundef %115)
  br label %121

116:                                              ; preds = %92
  %117 = load ptr, ptr %9, align 8
  %118 = getelementptr inbounds nuw %struct._stat_tap_table_item_type, ptr %117, i32 0, i32 1
  %119 = load i32, ptr %118, align 8
  call void (ptr, ptr, ...) @sharkd_json_value_anyf(ptr noundef null, ptr noundef @.str.5, i32 noundef %119)
  br label %121

120:                                              ; preds = %92
  call void (ptr, ptr, ...) @sharkd_json_value_anyf(ptr noundef null, ptr noundef @.str.299)
  br label %121

121:                                              ; preds = %92, %120, %116, %112, %108, %104, %100
  br label %122

122:                                              ; preds = %121
  %123 = load i32, ptr %6, align 4
  %124 = add i32 %123, 1
  store i32 %124, ptr %6, align 4
  br label %86, !llvm.loop !53

125:                                              ; preds = %86
  call void @sharkd_json_array_close()
  store i32 0, ptr %10, align 4
  br label %126

126:                                              ; preds = %125, %84
  call void @llvm.lifetime.end.p0(i64 8, ptr %9) #21
  %127 = load i32, ptr %10, align 4
  switch i32 %127, label %137 [
    i32 0, label %128
    i32 10, label %129
  ]

128:                                              ; preds = %126
  br label %129

129:                                              ; preds = %128, %126
  %130 = load i32, ptr %5, align 4
  %131 = add i32 %130, 1
  store i32 %131, ptr %5, align 4
  br label %67, !llvm.loop !54

132:                                              ; preds = %67
  call void @sharkd_json_array_close()
  call void @json_dumper_end_object(ptr noundef @dumper)
  call void @llvm.lifetime.end.p0(i64 8, ptr %8) #21
  br label %133

133:                                              ; preds = %132
  %134 = load i32, ptr %4, align 4
  %135 = add i32 %134, 1
  store i32 %135, ptr %4, align 4
  br label %42, !llvm.loop !55

136:                                              ; preds = %42
  call void @sharkd_json_array_close()
  call void @json_dumper_end_object(ptr noundef @dumper)
  call void @llvm.lifetime.end.p0(i64 4, ptr %6) #21
  call void @llvm.lifetime.end.p0(i64 4, ptr %5) #21
  call void @llvm.lifetime.end.p0(i64 4, ptr %4) #21
  call void @llvm.lifetime.end.p0(i64 8, ptr %3) #21
  ret void

137:                                              ; preds = %126
  unreachable
}