; Function Attrs: null_pointer_is_valid sspstrong uwtable
define internal void @sharkd_session_process_tap_nstat_cb(ptr noundef readonly captures(none) %0) #0 {
  tail call void @json_dumper_begin_object(ptr noundef nonnull @dumper)
  %2 = load ptr, ptr %0, align 8
  %3 = getelementptr inbounds nuw i8, ptr %2, i64 24
  %4 = load ptr, ptr %3, align 8
  tail call void (ptr, ptr, ...) @sharkd_json_value_stringf(ptr noundef nonnull @.str.20, ptr noundef nonnull @.str.166, ptr noundef %4)
  tail call void @json_dumper_set_member_name(ptr noundef nonnull @dumper, ptr noundef nonnull @.str.244)
  tail call void @json_dumper_value_string(ptr noundef nonnull @dumper, ptr noundef nonnull @.str.146)
  tail call void @json_dumper_set_member_name(ptr noundef nonnull @dumper, ptr noundef nonnull @.str.297)
  tail call void @json_dumper_begin_array(ptr noundef nonnull @dumper)
  %5 = load ptr, ptr %0, align 8
  %6 = getelementptr inbounds nuw i8, ptr %5, i64 72
  %7 = load i64, ptr %6, align 8
  %.not = icmp eq i64 %7, 0
  br i1 %.not, label %._crit_edge, label %.lr.ph

.lr.ph:                                           ; preds = %1, %.lr.ph
  %8 = phi ptr [ %16, %.lr.ph ], [ %5, %1 ]
  %9 = phi i64 [ %15, %.lr.ph ], [ 0, %1 ]
  %.036 = phi i32 [ %14, %.lr.ph ], [ 0, %1 ]
  %10 = getelementptr inbounds nuw i8, ptr %8, i64 80
  %11 = load ptr, ptr %10, align 8
  tail call void @json_dumper_begin_object(ptr noundef nonnull @dumper)
  %12 = getelementptr %struct._stat_tap_table_item, ptr %11, i64 %9, i32 2
  %13 = load ptr, ptr %12, align 8
  tail call void @json_dumper_set_member_name(ptr noundef nonnull @dumper, ptr noundef nonnull @.str.195)
  tail call void @json_dumper_value_string(ptr noundef nonnull @dumper, ptr noundef %13)
  tail call void @json_dumper_end_object(ptr noundef nonnull @dumper)
  %14 = add i32 %.036, 1
  %15 = zext i32 %14 to i64
  %16 = load ptr, ptr %0, align 8
  %17 = getelementptr inbounds nuw i8, ptr %16, i64 72
  %18 = load i64, ptr %17, align 8
  %19 = icmp ugt i64 %18, %15
  br i1 %19, label %.lr.ph, label %._crit_edge, !llvm.loop !53

._crit_edge:                                      ; preds = %.lr.ph, %1
  tail call void @json_dumper_end_array(ptr noundef nonnull @dumper)
  tail call void @json_dumper_set_member_name(ptr noundef nonnull @dumper, ptr noundef nonnull @.str.298)
  tail call void @json_dumper_begin_array(ptr noundef nonnull @dumper)
  %20 = load ptr, ptr %0, align 8
  %21 = getelementptr inbounds nuw i8, ptr %20, i64 104
  %22 = load ptr, ptr %21, align 8
  %23 = getelementptr inbounds nuw i8, ptr %22, i64 8
  %24 = load i32, ptr %23, align 8
  %.not49 = icmp eq i32 %24, 0
  br i1 %.not49, label %._crit_edge48, label %.lr.ph47

.lr.ph47:                                         ; preds = %._crit_edge, %._crit_edge44
  %indvars.iv = phi i64 [ %indvars.iv.next, %._crit_edge44 ], [ 0, %._crit_edge ]
  %25 = phi ptr [ %69, %._crit_edge44 ], [ %22, %._crit_edge ]
  %26 = load ptr, ptr %25, align 8
  %27 = getelementptr ptr, ptr %26, i64 %indvars.iv
  %28 = load ptr, ptr %27, align 8
  tail call void @json_dumper_begin_object(ptr noundef nonnull @dumper)
  %29 = load ptr, ptr %28, align 8
  tail call void @json_dumper_set_member_name(ptr noundef nonnull @dumper, ptr noundef nonnull @.str.186)
  tail call void @json_dumper_value_string(ptr noundef nonnull @dumper, ptr noundef %29)
  tail call void @json_dumper_set_member_name(ptr noundef nonnull @dumper, ptr noundef nonnull @.str.199)
  tail call void @json_dumper_begin_array(ptr noundef nonnull @dumper)
  %30 = getelementptr inbounds nuw i8, ptr %28, i64 20
  %31 = load i32, ptr %30, align 4
  %.not50 = icmp eq i32 %31, 0
  br i1 %.not50, label %._crit_edge44, label %.lr.ph43

.lr.ph43:                                         ; preds = %.lr.ph47
  %32 = getelementptr inbounds nuw i8, ptr %28, i64 16
  br label %33

33:                                               ; preds = %.lr.ph43, %63
  %.03241 = phi i32 [ 0, %.lr.ph43 ], [ %64, %63 ]
  %34 = tail call ptr @stat_tap_get_field_data(ptr noundef %28, i32 noundef %.03241, i32 noundef 0)
  %35 = icmp eq ptr %34, null
  br i1 %35, label %63, label %36

36:                                               ; preds = %33
  %37 = load i32, ptr %34, align 8
  %38 = icmp eq i32 %37, 0
  br i1 %38, label %63, label %39

39:                                               ; preds = %36
  tail call void @json_dumper_begin_array(ptr noundef nonnull @dumper)
  %40 = load i32, ptr %32, align 8
  %.not51 = icmp eq i32 %40, 0
  br i1 %.not51, label %._crit_edge40, label %.lr.ph39

.lr.ph39:                                         ; preds = %39, %59
  %.03337 = phi i32 [ %60, %59 ], [ 0, %39 ]
  %41 = tail call ptr @stat_tap_get_field_data(ptr noundef %28, i32 noundef %.03241, i32 noundef %.03337)
  %42 = load i32, ptr %41, align 8
  switch i32 %42, label %59 [
    i32 1, label %43
    i32 2, label %46
    i32 3, label %49
    i32 4, label %52
    i32 5, label %55
    i32 0, label %58
  ]

43:                                               ; preds = %.lr.ph39
  %44 = getelementptr inbounds nuw i8, ptr %41, i64 8
  %45 = load i32, ptr %44, align 8
  tail call void (ptr, ptr, ...) @sharkd_json_value_anyf(ptr noundef null, ptr noundef nonnull @.str.123, i32 noundef %45)
  br label %59

46:                                               ; preds = %.lr.ph39
  %47 = getelementptr inbounds nuw i8, ptr %41, i64 8
  %48 = load i32, ptr %47, align 8
  tail call void (ptr, ptr, ...) @sharkd_json_value_anyf(ptr noundef null, ptr noundef nonnull @.str.5, i32 noundef %48)
  br label %59

49:                                               ; preds = %.lr.ph39
  %50 = getelementptr inbounds nuw i8, ptr %41, i64 8
  %51 = load ptr, ptr %50, align 8
  tail call void @json_dumper_value_string(ptr noundef nonnull @dumper, ptr noundef %51)
  br label %59

52:                                               ; preds = %.lr.ph39
  %53 = getelementptr inbounds nuw i8, ptr %41, i64 8
  %54 = load double, ptr %53, align 8
  tail call void (ptr, ptr, ...) @sharkd_json_value_anyf(ptr noundef null, ptr noundef nonnull @.str.250, double noundef %54)
  br label %59

55:                                               ; preds = %.lr.ph39
  %56 = getelementptr inbounds nuw i8, ptr %41, i64 8
  %57 = load i32, ptr %56, align 8
  tail call void (ptr, ptr, ...) @sharkd_json_value_anyf(ptr noundef null, ptr noundef nonnull @.str.5, i32 noundef %57)
  br label %59

58:                                               ; preds = %.lr.ph39
  tail call void (ptr, ptr, ...) @sharkd_json_value_anyf(ptr noundef null, ptr noundef nonnull @.str.299)
  br label %59

59:                                               ; preds = %.lr.ph39, %43, %46, %49, %52, %55, %58
  %60 = add nuw i32 %.03337, 1
  %61 = load i32, ptr %32, align 8
  %62 = icmp ult i32 %60, %61
  br i1 %62, label %.lr.ph39, label %._crit_edge40, !llvm.loop !54

._crit_edge40:                                    ; preds = %59, %39
  tail call void @json_dumper_end_array(ptr noundef nonnull @dumper)
  br label %63

63:                                               ; preds = %33, %36, %._crit_edge40
  %64 = add nuw i32 %.03241, 1
  %65 = load i32, ptr %30, align 4
  %66 = icmp ult i32 %64, %65
  br i1 %66, label %33, label %._crit_edge44, !llvm.loop !55

._crit_edge44:                                    ; preds = %63, %.lr.ph47
  tail call void @json_dumper_end_array(ptr noundef nonnull @dumper)
  tail call void @json_dumper_end_object(ptr noundef nonnull @dumper)
  %indvars.iv.next = add nuw nsw i64 %indvars.iv, 1
  %67 = load ptr, ptr %0, align 8
  %68 = getelementptr inbounds nuw i8, ptr %67, i64 104
  %69 = load ptr, ptr %68, align 8
  %70 = getelementptr inbounds nuw i8, ptr %69, i64 8
  %71 = load i32, ptr %70, align 8
  %72 = zext i32 %71 to i64
  %73 = icmp samesign ult i64 %indvars.iv.next, %72
  br i1 %73, label %.lr.ph47, label %._crit_edge48, !llvm.loop !56

._crit_edge48:                                    ; preds = %._crit_edge44, %._crit_edge
  tail call void @json_dumper_end_array(ptr noundef nonnull @dumper)
  tail call void @json_dumper_end_object(ptr noundef nonnull @dumper)
  ret void
}